target datalayout = "e-m:e-p270:32:32-p271:32:32-p272:64:64-i64:64-i128:128-f80:128-n8:16:32:64-S128"
target triple = "x86_64-pc-linux-gnu"

%struct.Color = type { i8, i8, i8, i8 }
%struct.Image = type { ptr, i32, i32, i32, i32 }
%struct.Rectangle = type { float, float, float, float }

; Function Attrs: nounwind uwtable
define void @UnloadImageColors(ptr noundef %0) #0 {
  %2 = alloca ptr, align 8
  store ptr %0, ptr %2, align 8
  %3 = load ptr, ptr %2, align 8
  call void @free(ptr noundef %3) #19
  ret void
}

; Function Attrs: nounwind uwtable
define { <2 x float>, <2 x float> } @GetImageAlphaBorder(ptr noundef byval(%struct.Image) align 8 %0, float noundef %1) #0 {
  %3 = alloca %struct.Rectangle, align 4
  %4 = alloca float, align 4
  %5 = alloca ptr, align 8
  %6 = alloca i32, align 4
  %7 = alloca i32, align 4
  %8 = alloca i32, align 4
  %9 = alloca i32, align 4
  %10 = alloca i32, align 4
  %11 = alloca i32, align 4
  %12 = alloca i32, align 4
  %13 = alloca %struct.Rectangle, align 4
  store float %1, ptr %4, align 4
  call void @llvm.memset.p0.i64(ptr align 4 %3, i8 0, i64 16, i1 false)
  call void @llvm.lifetime.start.p0(i64 8, ptr %5) #19
  %14 = call ptr @LoadImageColors(ptr noundef byval(%struct.Image) align 8 %0)
  store ptr %14, ptr %5, align 8
  %15 = load ptr, ptr %5, align 8
  %16 = icmp ne ptr %15, null
  br i1 %16, label %17, label %109

17:                                               ; preds = %2
  call void @llvm.lifetime.start.p0(i64 4, ptr %6) #19
  store i32 65536, ptr %6, align 4
  call void @llvm.lifetime.start.p0(i64 4, ptr %7) #19
  store i32 0, ptr %7, align 4
  call void @llvm.lifetime.start.p0(i64 4, ptr %8) #19
  store i32 65536, ptr %8, align 4
  call void @llvm.lifetime.start.p0(i64 4, ptr %9) #19
  store i32 0, ptr %9, align 4
  call void @llvm.lifetime.start.p0(i64 4, ptr %10) #19
  store i32 0, ptr %10, align 4
  br label %18

18:                                               ; preds = %79, %17
  %19 = load i32, ptr %10, align 4
  %20 = getelementptr inbounds nuw %struct.Image, ptr %0, i32 0, i32 2
  %21 = load i32, ptr %20, align 4
  %22 = icmp slt i32 %19, %21
  br i1 %22, label %24, label %23

23:                                               ; preds = %18
  store i32 2, ptr %11, align 4
  call void @llvm.lifetime.end.p0(i64 4, ptr %10) #19
  br label %82

24:                                               ; preds = %18
  call void @llvm.lifetime.start.p0(i64 4, ptr %12) #19
  store i32 0, ptr %12, align 4
  br label %25

25:                                               ; preds = %75, %24
  %26 = load i32, ptr %12, align 4
  %27 = getelementptr inbounds nuw %struct.Image, ptr %0, i32 0, i32 1
  %28 = load i32, ptr %27, align 8
  %29 = icmp slt i32 %26, %28
  br i1 %29, label %31, label %30

30:                                               ; preds = %25
  store i32 5, ptr %11, align 4
  call void @llvm.lifetime.end.p0(i64 4, ptr %12) #19
  br label %78

31:                                               ; preds = %25
  %32 = load ptr, ptr %5, align 8
  %33 = load i32, ptr %10, align 4
  %34 = getelementptr inbounds nuw %struct.Image, ptr %0, i32 0, i32 1
  %35 = load i32, ptr %34, align 8
  %36 = mul nsw i32 %33, %35
  %37 = load i32, ptr %12, align 4
  %38 = add nsw i32 %36, %37
  %39 = sext i32 %38 to i64
  %40 = getelementptr inbounds %struct.Color, ptr %32, i64 %39
  %41 = getelementptr inbounds nuw %struct.Color, ptr %40, i32 0, i32 3
  %42 = load i8, ptr %41, align 1
  %43 = zext i8 %42 to i32
  %44 = load float, ptr %4, align 4
  %45 = fmul float %44, 2.550000e+02
  %46 = fptoui float %45 to i8
  %47 = zext i8 %46 to i32
  %48 = icmp sgt i32 %43, %47
  br i1 %48, label %49, label %74

49:                                               ; preds = %31
  %50 = load i32, ptr %12, align 4
  %51 = load i32, ptr %6, align 4
  %52 = icmp slt i32 %50, %51
  br i1 %52, label %53, label %55

53:                                               ; preds = %49
  %54 = load i32, ptr %12, align 4
  store i32 %54, ptr %6, align 4
  br label %55

55:                                               ; preds = %53, %49
  %56 = load i32, ptr %12, align 4
  %57 = load i32, ptr %7, align 4
  %58 = icmp sgt i32 %56, %57
  br i1 %58, label %59, label %61

59:                                               ; preds = %55
  %60 = load i32, ptr %12, align 4
  store i32 %60, ptr %7, align 4
  br label %61

61:                                               ; preds = %59, %55
  %62 = load i32, ptr %10, align 4
  %63 = load i32, ptr %8, align 4
  %64 = icmp slt i32 %62, %63
  br i1 %64, label %65, label %67

65:                                               ; preds = %61
  %66 = load i32, ptr %10, align 4
  store i32 %66, ptr %8, align 4
  br label %67

67:                                               ; preds = %65, %61
  %68 = load i32, ptr %10, align 4
  %69 = load i32, ptr %9, align 4
  %70 = icmp sgt i32 %68, %69
  br i1 %70, label %71, label %73

71:                                               ; preds = %67
  %72 = load i32, ptr %10, align 4
  store i32 %72, ptr %9, align 4
  br label %73

73:                                               ; preds = %71, %67
  br label %74

74:                                               ; preds = %73, %31
  br label %75

75:                                               ; preds = %74
  %76 = load i32, ptr %12, align 4
  %77 = add nsw i32 %76, 1
  store i32 %77, ptr %12, align 4
  br label %25

78:                                               ; preds = %30
  br label %79

79:                                               ; preds = %78
  %80 = load i32, ptr %10, align 4
  %81 = add nsw i32 %80, 1
  store i32 %81, ptr %10, align 4
  br label %18

82:                                               ; preds = %23
  %83 = load i32, ptr %6, align 4
  %84 = icmp ne i32 %83, 65536
  br i1 %84, label %85, label %107

85:                                               ; preds = %82
  %86 = load i32, ptr %7, align 4
  %87 = icmp ne i32 %86, 65536
  br i1 %87, label %88, label %107

88:                                               ; preds = %85
  %89 = getelementptr inbounds nuw %struct.Rectangle, ptr %13, i32 0, i32 0
  %90 = load i32, ptr %6, align 4
  %91 = sitofp i32 %90 to float
  store float %91, ptr %89, align 4
  %92 = getelementptr inbounds nuw %struct.Rectangle, ptr %13, i32 0, i32 1
  %93 = load i32, ptr %8, align 4
  %94 = sitofp i32 %93 to float
  store float %94, ptr %92, align 4
  %95 = getelementptr inbounds nuw %struct.Rectangle, ptr %13, i32 0, i32 2
  %96 = load i32, ptr %7, align 4
  %97 = add nsw i32 %96, 1
  %98 = load i32, ptr %6, align 4
  %99 = sub nsw i32 %97, %98
  %100 = sitofp i32 %99 to float
  store float %100, ptr %95, align 4
  %101 = getelementptr inbounds nuw %struct.Rectangle, ptr %13, i32 0, i32 3
  %102 = load i32, ptr %9, align 4
  %103 = add nsw i32 %102, 1
  %104 = load i32, ptr %8, align 4
  %105 = sub nsw i32 %103, %104
  %106 = sitofp i32 %105 to float
  store float %106, ptr %101, align 4
  call void @llvm.memcpy.p0.p0.i64(ptr align 4 %3, ptr align 4 %13, i64 16, i1 false)
  br label %107

107:                                              ; preds = %88, %85, %82
  %108 = load ptr, ptr %5, align 8
  call void @UnloadImageColors(ptr noundef %108)
  call void @llvm.lifetime.end.p0(i64 4, ptr %9) #19
  call void @llvm.lifetime.end.p0(i64 4, ptr %8) #19
  call void @llvm.lifetime.end.p0(i64 4, ptr %7) #19
  call void @llvm.lifetime.end.p0(i64 4, ptr %6) #19
  br label %109

109:                                              ; preds = %107, %2
  store i32 1, ptr %11, align 4
  call void @llvm.lifetime.end.p0(i64 8, ptr %5) #19
  %110 = load { <2 x float>, <2 x float> }, ptr %3, align 4
  ret { <2 x float>, <2 x float> } %110
}