; Function Attrs: nounwind uwtable
define { <2 x float>, <2 x float> } @GetImageAlphaBorder(ptr noundef readonly byval(%struct.Image) align 8 captures(none) %0, float noundef %1) local_unnamed_addr #4 {
  %3 = tail call ptr @LoadImageColors(ptr noundef nonnull byval(%struct.Image) align 8 %0)
  %.not = icmp eq ptr %3, null
  br i1 %.not, label %33, label %.preheader50

.preheader50:                                     ; preds = %2
  %4 = getelementptr inbounds nuw i8, ptr %0, i64 12
  %5 = load i32, ptr %4, align 4
  %6 = icmp sgt i32 %5, 0
  br i1 %6, label %.preheader.lr.ph, label %._crit_edge64.thread

.preheader.lr.ph:                                 ; preds = %.preheader50
  %7 = getelementptr inbounds nuw i8, ptr %0, i64 8
  %8 = load i32, ptr %7, align 8
  %9 = icmp sgt i32 %8, 0
  %10 = fmul float %1, 2.550000e+02
  %11 = fptoui float %10 to i8
  br i1 %9, label %.preheader.us.preheader, label %._crit_edge64.thread

.preheader.us.preheader:                          ; preds = %.preheader.lr.ph
  %12 = zext nneg i32 %8 to i64
  %wide.trip.count77 = zext nneg i32 %5 to i64
  br label %.preheader.us

.preheader.us:                                    ; preds = %.preheader.us.preheader, %._crit_edge.us
  %indvars.iv74 = phi i64 [ 0, %.preheader.us.preheader ], [ %indvars.iv.next75, %._crit_edge.us ]
  %.063.us = phi i32 [ 65536, %.preheader.us.preheader ], [ %.3.us, %._crit_edge.us ]
  %.03462.us = phi i32 [ 0, %.preheader.us.preheader ], [ %.337.us, %._crit_edge.us ]
  %.04060.us = phi i32 [ 0, %.preheader.us.preheader ], [ %.242.us, %._crit_edge.us ]
  %.04359.us = phi i32 [ 65536, %.preheader.us.preheader ], [ %.346.us, %._crit_edge.us ]
  %13 = mul nuw nsw i64 %indvars.iv74, %12
  %14 = trunc nuw nsw i64 %indvars.iv74 to i32
  br label %15

15:                                               ; preds = %.preheader.us, %22
  %indvars.iv = phi i64 [ 0, %.preheader.us ], [ %indvars.iv.next, %22 ]
  %.155.us = phi i32 [ %.063.us, %.preheader.us ], [ %.3.us, %22 ]
  %.13554.us = phi i32 [ %.03462.us, %.preheader.us ], [ %.337.us, %22 ]
  %.14152.us = phi i32 [ %.04060.us, %.preheader.us ], [ %.242.us, %22 ]
  %.14451.us = phi i32 [ %.04359.us, %.preheader.us ], [ %.346.us, %22 ]
  %16 = add nuw nsw i64 %13, %indvars.iv
  %17 = getelementptr inbounds nuw %struct.Color, ptr %3, i64 %16, i32 3
  %18 = load i8, ptr %17, align 1
  %19 = icmp ugt i8 %18, %11
  br i1 %19, label %20, label %22

20:                                               ; preds = %15
  %21 = trunc nuw nsw i64 %indvars.iv to i32
  %spec.select.us = tail call i32 @llvm.smin.i32(i32 %21, i32 %.155.us)
  %.236.us = tail call i32 @llvm.smax.i32(i32 %21, i32 %.13554.us)
  %.245.us = tail call i32 @llvm.smin.i32(i32 %14, i32 %.14451.us)
  %spec.select49.us = tail call i32 @llvm.smax.i32(i32 %14, i32 %.14152.us)
  br label %22

22:                                               ; preds = %20, %15
  %.346.us = phi i32 [ %.14451.us, %15 ], [ %.245.us, %20 ]
  %.242.us = phi i32 [ %.14152.us, %15 ], [ %spec.select49.us, %20 ]
  %.337.us = phi i32 [ %.13554.us, %15 ], [ %.236.us, %20 ]
  %.3.us = phi i32 [ %.155.us, %15 ], [ %spec.select.us, %20 ]
  %indvars.iv.next = add nuw nsw i64 %indvars.iv, 1
  %exitcond.not = icmp eq i64 %indvars.iv.next, %12
  br i1 %exitcond.not, label %._crit_edge.us, label %15

._crit_edge.us:                                   ; preds = %22
  %indvars.iv.next75 = add nuw nsw i64 %indvars.iv74, 1
  %exitcond78.not = icmp eq i64 %indvars.iv.next75, %wide.trip.count77
  br i1 %exitcond78.not, label %._crit_edge64, label %.preheader.us

._crit_edge64:                                    ; preds = %._crit_edge.us
  %23 = icmp ne i32 %.3.us, 65536
  %24 = icmp ne i32 %.337.us, 65536
  %or.cond = select i1 %23, i1 %24, i1 false
  br i1 %or.cond, label %25, label %._crit_edge64.thread

25:                                               ; preds = %._crit_edge64
  %26 = sitofp i32 %.3.us to float
  %27 = sitofp i32 %.346.us to float
  %28 = add nuw nsw i32 %.337.us, 1
  %29 = sub i32 %28, %.3.us
  %30 = sitofp i32 %29 to float
  %reass.sub = sub i32 %.242.us, %.346.us
  %31 = add i32 %reass.sub, 1
  %32 = sitofp i32 %31 to float
  %.sroa.030.0.vec.insert = insertelement <2 x float> poison, float %26, i64 0
  %.sroa.030.4.vec.insert = insertelement <2 x float> %.sroa.030.0.vec.insert, float %27, i64 1
  %.sroa.432.8.vec.insert = insertelement <2 x float> poison, float %30, i64 0
  %.sroa.432.12.vec.insert = insertelement <2 x float> %.sroa.432.8.vec.insert, float %32, i64 1
  br label %._crit_edge64.thread

._crit_edge64.thread:                             ; preds = %.preheader.lr.ph, %.preheader50, %25, %._crit_edge64
  %.sroa.030.1 = phi <2 x float> [ %.sroa.030.4.vec.insert, %25 ], [ zeroinitializer, %._crit_edge64 ], [ zeroinitializer, %.preheader50 ], [ zeroinitializer, %.preheader.lr.ph ]
  %.sroa.432.1 = phi <2 x float> [ %.sroa.432.12.vec.insert, %25 ], [ zeroinitializer, %._crit_edge64 ], [ zeroinitializer, %.preheader50 ], [ zeroinitializer, %.preheader.lr.ph ]
  tail call void @free(ptr noundef nonnull %3) #54
  br label %33

33:                                               ; preds = %._crit_edge64.thread, %2
  %.sroa.030.0 = phi <2 x float> [ %.sroa.030.1, %._crit_edge64.thread ], [ zeroinitializer, %2 ]
  %.sroa.432.0 = phi <2 x float> [ %.sroa.432.1, %._crit_edge64.thread ], [ zeroinitializer, %2 ]
  %.fca.0.insert = insertvalue { <2 x float>, <2 x float> } poison, <2 x float> %.sroa.030.0, 0
  %.fca.1.insert = insertvalue { <2 x float>, <2 x float> } %.fca.0.insert, <2 x float> %.sroa.432.0, 1
  ret { <2 x float>, <2 x float> } %.fca.1.insert
}